; ModuleID = '54/262.c'
source_filename = "54/262.c"
target datalayout = "e-m:e-p270:32:32-p271:32:32-p272:64:64-i64:64-f80:128-n8:16:32:64-S128"
target triple = "x86_64-pc-linux-gnu"

@.str = private unnamed_addr constant [5 x i8] c"%d%d\00", align 1
@.str.1 = private unnamed_addr constant [3 x i8] c"%d\00", align 1

; Function Attrs: noinline nounwind uwtable
define dso_local i32 @main() #0 {
  %1 = alloca i32, align 4
  %2 = alloca i32, align 4
  %3 = alloca i32, align 4
  %4 = alloca i32, align 4
  %5 = alloca i32, align 4
  store i32 0, i32* %1, align 4
  store i32 1, i32* %5, align 4
  %6 = call i32 (i8*, ...) @__isoc99_scanf(i8* getelementptr inbounds ([5 x i8], [5 x i8]* @.str, i64 0, i64 0), i32* %3, i32* %4)
  %7 = load i32, i32* %3, align 4
  %8 = icmp eq i32 %7, 2
  br i1 %8, label %9, label %32

9:                                                ; preds = %0
  store i32 1, i32* %2, align 4
  br label %10

10:                                               ; preds = %19, %9
  %11 = load i32, i32* %2, align 4
  %12 = load i32, i32* %3, align 4
  %13 = add nsw i32 %12, 1
  %14 = icmp sle i32 %11, %13
  br i1 %14, label %15, label %22

15:                                               ; preds = %10
  %16 = load i32, i32* %5, align 4
  %17 = load i32, i32* %3, align 4
  %18 = mul nsw i32 %16, %17
  store i32 %18, i32* %5, align 4
  br label %19

19:                                               ; preds = %15
  %20 = load i32, i32* %2, align 4
  %21 = add nsw i32 %20, 1
  store i32 %21, i32* %2, align 4
  br label %10

22:                                               ; preds = %10
  %23 = load i32, i32* %5, align 4
  %24 = load i32, i32* %4, align 4
  %25 = load i32, i32* %3, align 4
  %26 = mul nsw i32 %24, %25
  %27 = sub nsw i32 %23, %26
  %28 = load i32, i32* %4, align 4
  %29 = add nsw i32 %27, %28
  store i32 %29, i32* %5, align 4
  %30 = load i32, i32* %5, align 4
  %31 = call i32 (i8*, ...) @printf(i8* getelementptr inbounds ([3 x i8], [3 x i8]* @.str.1, i64 0, i64 0), i32 %30)
  br label %54

32:                                               ; preds = %0
  store i32 1, i32* %2, align 4
  br label %33

33:                                               ; preds = %41, %32
  %34 = load i32, i32* %2, align 4
  %35 = load i32, i32* %3, align 4
  %36 = icmp sle i32 %34, %35
  br i1 %36, label %37, label %44

37:                                               ; preds = %33
  %38 = load i32, i32* %5, align 4
  %39 = load i32, i32* %3, align 4
  %40 = mul nsw i32 %38, %39
  store i32 %40, i32* %5, align 4
  br label %41

41:                                               ; preds = %37
  %42 = load i32, i32* %2, align 4
  %43 = add nsw i32 %42, 1
  store i32 %43, i32* %2, align 4
  br label %33

44:                                               ; preds = %33
  %45 = load i32, i32* %5, align 4
  %46 = load i32, i32* %4, align 4
  %47 = load i32, i32* %3, align 4
  %48 = mul nsw i32 %46, %47
  %49 = sub nsw i32 %45, %48
  %50 = load i32, i32* %4, align 4
  %51 = add nsw i32 %49, %50
  store i32 %51, i32* %5, align 4
  %52 = load i32, i32* %5, align 4
  %53 = call i32 (i8*, ...) @printf(i8* getelementptr inbounds ([3 x i8], [3 x i8]* @.str.1, i64 0, i64 0), i32 %52)
  br label %54

54:                                               ; preds = %44, %22
  ret i32 0
}

declare dso_local i32 @__isoc99_scanf(i8*, ...) #1

declare dso_local i32 @printf(i8*, ...) #1


!llvm.module.flags = !{!0}
!llvm.ident = !{!1}

!0 = !{i32 1, !"wchar_size", i32 4}
!1 = !{!"clang version 10.0.0-4ubuntu1 "}
